; Function Attrs: mustprogress nounwind uwtable
define dso_local noundef zeroext i1 @_ZN4llvm13DWARFVerifier18handleDebugCUIndexEv(ptr noundef nonnull align 8 dereferenceable(242) %0) local_unnamed_addr #0 align 2 {
  %2 = getelementptr inbounds nuw i8, ptr %0, i64 8
  %3 = load ptr, ptr %2, align 8
  %4 = getelementptr inbounds nuw i8, ptr %3, i64 96
  %5 = load ptr, ptr %4, align 8
  %6 = load ptr, ptr %5, align 8
  %7 = getelementptr inbounds i8, ptr %6, i64 360
  %8 = load ptr, ptr %7, align 8
  %9 = tail call { ptr, i64 } %8(ptr noundef nonnull align 8 dereferenceable(32) %5) #26
  %10 = extractvalue { ptr, i64 } %9, 0
  %11 = extractvalue { ptr, i64 } %9, 1
  %12 = tail call noundef i32 @_ZN4llvm13DWARFVerifier11verifyIndexENS_9StringRefENS_16DWARFSectionKindES1_(ptr noundef nonnull align 8 dereferenceable(242) %0, ptr nonnull @.str.25, i64 15, i32 noundef 1, ptr %10, i64 %11)
  %13 = icmp eq i32 %12, 0
  ret i1 %13
}